target datalayout = "e-m:e-p270:32:32-p271:32:32-p272:64:64-i64:64-f80:128-n8:16:32:64-S128"
target triple = "x86_64-pc-linux-gnu"

@.str = private unnamed_addr constant [6 x i8] c"%d %d\00", align 1
@.str.1 = private unnamed_addr constant [3 x i8] c"%d\00", align 1
@.str.2 = private unnamed_addr constant [4 x i8] c"%d \00", align 1
@.str.3 = private unnamed_addr constant [4 x i8] c"%d\0A\00", align 1

; Function Attrs: noinline nounwind uwtable
define dso_local i32 @main() #0 {
  %1 = alloca i32, align 4
  %2 = alloca [100 x [100 x i32]], align 16
  %3 = alloca [100 x [100 x i32]], align 16
  %4 = alloca [100 x [100 x i32]], align 16
  %5 = alloca i32, align 4
  %6 = alloca i32, align 4
  %7 = alloca i32, align 4
  %8 = alloca i32, align 4
  %9 = alloca i32, align 4
  %10 = alloca i32, align 4
  %11 = alloca i32, align 4
  %12 = alloca i32, align 4
  %13 = alloca i32, align 4
  %14 = alloca i32, align 4
  %15 = alloca i32, align 4
  %16 = alloca i32, align 4
  %17 = alloca i32, align 4
  store i32 0, i32* %1, align 4
  %18 = bitcast [100 x [100 x i32]]* %4 to i8*
  call void @llvm.memset.p0i8.i64(i8* align 16 %18, i8 0, i64 40000, i1 false)
  %19 = call i32 (i8*, ...) @__isoc99_scanf(i8* getelementptr inbounds ([6 x i8], [6 x i8]* @.str, i64 0, i64 0), i32* %5, i32* %6)
  store i32 0, i32* %9, align 4
  br label %20

20:                                               ; preds = %43, %0
  %21 = load i32, i32* %9, align 4
  %22 = load i32, i32* %5, align 4
  %23 = sub nsw i32 %22, 1
  %24 = icmp sle i32 %21, %23
  br i1 %24, label %25, label %46

25:                                               ; preds = %20
  store i32 0, i32* %10, align 4
  br label %26

26:                                               ; preds = %39, %25
  %27 = load i32, i32* %10, align 4
  %28 = load i32, i32* %6, align 4
  %29 = sub nsw i32 %28, 1
  %30 = icmp sle i32 %27, %29
  br i1 %30, label %31, label %42

31:                                               ; preds = %26
  %32 = load i32, i32* %9, align 4
  %33 = sext i32 %32 to i64
  %34 = getelementptr inbounds [100 x [100 x i32]], [100 x [100 x i32]]* %2, i64 0, i64 %33
  %35 = load i32, i32* %10, align 4
  %36 = sext i32 %35 to i64
  %37 = getelementptr inbounds [100 x i32], [100 x i32]* %34, i64 0, i64 %36
  %38 = call i32 (i8*, ...) @__isoc99_scanf(i8* getelementptr inbounds ([3 x i8], [3 x i8]* @.str.1, i64 0, i64 0), i32* %37)
  br label %39

39:                                               ; preds = %31
  %40 = load i32, i32* %10, align 4
  %41 = add nsw i32 %40, 1
  store i32 %41, i32* %10, align 4
  br label %26

42:                                               ; preds = %26
  br label %43

43:                                               ; preds = %42
  %44 = load i32, i32* %9, align 4
  %45 = add nsw i32 %44, 1
  store i32 %45, i32* %9, align 4
  br label %20

46:                                               ; preds = %20
  %47 = call i32 (i8*, ...) @__isoc99_scanf(i8* getelementptr inbounds ([6 x i8], [6 x i8]* @.str, i64 0, i64 0), i32* %7, i32* %8)
  store i32 0, i32* %11, align 4
  br label %48

48:                                               ; preds = %71, %46
  %49 = load i32, i32* %11, align 4
  %50 = load i32, i32* %7, align 4
  %51 = sub nsw i32 %50, 1
  %52 = icmp sle i32 %49, %51
  br i1 %52, label %53, label %74

53:                                               ; preds = %48
  store i32 0, i32* %12, align 4
  br label %54

54:                                               ; preds = %67, %53
  %55 = load i32, i32* %12, align 4
  %56 = load i32, i32* %8, align 4
  %57 = sub nsw i32 %56, 1
  %58 = icmp sle i32 %55, %57
  br i1 %58, label %59, label %70

59:                                               ; preds = %54
  %60 = load i32, i32* %11, align 4
  %61 = sext i32 %60 to i64
  %62 = getelementptr inbounds [100 x [100 x i32]], [100 x [100 x i32]]* %3, i64 0, i64 %61
  %63 = load i32, i32* %12, align 4
  %64 = sext i32 %63 to i64
  %65 = getelementptr inbounds [100 x i32], [100 x i32]* %62, i64 0, i64 %64
  %66 = call i32 (i8*, ...) @__isoc99_scanf(i8* getelementptr inbounds ([3 x i8], [3 x i8]* @.str.1, i64 0, i64 0), i32* %65)
  br label %67

67:                                               ; preds = %59
  %68 = load i32, i32* %12, align 4
  %69 = add nsw i32 %68, 1
  store i32 %69, i32* %12, align 4
  br label %54

70:                                               ; preds = %54
  br label %71

71:                                               ; preds = %70
  %72 = load i32, i32* %11, align 4
  %73 = add nsw i32 %72, 1
  store i32 %73, i32* %11, align 4
  br label %48

74:                                               ; preds = %48
  store i32 0, i32* %13, align 4
  br label %75

75:                                               ; preds = %156, %74
  %76 = load i32, i32* %13, align 4
  %77 = load i32, i32* %5, align 4
  %78 = sub nsw i32 %77, 1
  %79 = icmp sle i32 %76, %78
  br i1 %79, label %80, label %159

80:                                               ; preds = %75
  store i32 0, i32* %14, align 4
  br label %81

81:                                               ; preds = %152, %80
  %82 = load i32, i32* %14, align 4
  %83 = load i32, i32* %8, align 4
  %84 = sub nsw i32 %83, 1
  %85 = icmp sle i32 %82, %84
  br i1 %85, label %86, label %155

86:                                               ; preds = %81
  store i32 0, i32* %15, align 4
  br label %87

87:                                               ; preds = %148, %86
  %88 = load i32, i32* %15, align 4
  %89 = load i32, i32* %6, align 4
  %90 = sub nsw i32 %89, 1
  %91 = icmp sle i32 %88, %90
  br i1 %91, label %92, label %151

92:                                               ; preds = %87
  %93 = load i32, i32* %15, align 4
  %94 = icmp eq i32 %93, 0
  br i1 %94, label %95, label %117

95:                                               ; preds = %92
  %96 = load i32, i32* %13, align 4
  %97 = sext i32 %96 to i64
  %98 = getelementptr inbounds [100 x [100 x i32]], [100 x [100 x i32]]* %2, i64 0, i64 %97
  %99 = load i32, i32* %15, align 4
  %100 = sext i32 %99 to i64
  %101 = getelementptr inbounds [100 x i32], [100 x i32]* %98, i64 0, i64 %100
  %102 = load i32, i32* %101, align 4
  %103 = load i32, i32* %15, align 4
  %104 = sext i32 %103 to i64
  %105 = getelementptr inbounds [100 x [100 x i32]], [100 x [100 x i32]]* %3, i64 0, i64 %104
  %106 = load i32, i32* %14, align 4
  %107 = sext i32 %106 to i64
  %108 = getelementptr inbounds [100 x i32], [100 x i32]* %105, i64 0, i64 %107
  %109 = load i32, i32* %108, align 4
  %110 = mul nsw i32 %102, %109
  %111 = load i32, i32* %13, align 4
  %112 = sext i32 %111 to i64
  %113 = getelementptr inbounds [100 x [100 x i32]], [100 x [100 x i32]]* %4, i64 0, i64 %112
  %114 = load i32, i32* %14, align 4
  %115 = sext i32 %114 to i64
  %116 = getelementptr inbounds [100 x i32], [100 x i32]* %113, i64 0, i64 %115
  store i32 %110, i32* %116, align 4
  br label %147

117:                                              ; preds = %92
  %118 = load i32, i32* %13, align 4
  %119 = sext i32 %118 to i64
  %120 = getelementptr inbounds [100 x [100 x i32]], [100 x [100 x i32]]* %4, i64 0, i64 %119
  %121 = load i32, i32* %14, align 4
  %122 = sext i32 %121 to i64
  %123 = getelementptr inbounds [100 x i32], [100 x i32]* %120, i64 0, i64 %122
  %124 = load i32, i32* %123, align 4
  %125 = load i32, i32* %13, align 4
  %126 = sext i32 %125 to i64
  %127 = getelementptr inbounds [100 x [100 x i32]], [100 x [100 x i32]]* %2, i64 0, i64 %126
  %128 = load i32, i32* %15, align 4
  %129 = sext i32 %128 to i64
  %130 = getelementptr inbounds [100 x i32], [100 x i32]* %127, i64 0, i64 %129
  %131 = load i32, i32* %130, align 4
  %132 = load i32, i32* %15, align 4
  %133 = sext i32 %132 to i64
  %134 = getelementptr inbounds [100 x [100 x i32]], [100 x [100 x i32]]* %3, i64 0, i64 %133
  %135 = load i32, i32* %14, align 4
  %136 = sext i32 %135 to i64
  %137 = getelementptr inbounds [100 x i32], [100 x i32]* %134, i64 0, i64 %136
  %138 = load i32, i32* %137, align 4
  %139 = mul nsw i32 %131, %138
  %140 = add nsw i32 %124, %139
  %141 = load i32, i32* %13, align 4
  %142 = sext i32 %141 to i64
  %143 = getelementptr inbounds [100 x [100 x i32]], [100 x [100 x i32]]* %4, i64 0, i64 %142
  %144 = load i32, i32* %14, align 4
  %145 = sext i32 %144 to i64
  %146 = getelementptr inbounds [100 x i32], [100 x i32]* %143, i64 0, i64 %145
  store i32 %140, i32* %146, align 4
  br label %147

147:                                              ; preds = %117, %95
  br label %148

148:                                              ; preds = %147
  %149 = load i32, i32* %15, align 4
  %150 = add nsw i32 %149, 1
  store i32 %150, i32* %15, align 4
  br label %87

151:                                              ; preds = %87
  br label %152

152:                                              ; preds = %151
  %153 = load i32, i32* %14, align 4
  %154 = add nsw i32 %153, 1
  store i32 %154, i32* %14, align 4
  br label %81

155:                                              ; preds = %81
  br label %156

156:                                              ; preds = %155
  %157 = load i32, i32* %13, align 4
  %158 = add nsw i32 %157, 1
  store i32 %158, i32* %13, align 4
  br label %75

159:                                              ; preds = %75
  store i32 0, i32* %16, align 4
  br label %160

160:                                              ; preds = %230, %159
  %161 = load i32, i32* %16, align 4
  %162 = load i32, i32* %5, align 4
  %163 = sub nsw i32 %162, 1
  %164 = icmp sle i32 %161, %163
  br i1 %164, label %165, label %233

165:                                              ; preds = %160
  store i32 0, i32* %17, align 4
  br label %166

166:                                              ; preds = %226, %165
  %167 = load i32, i32* %17, align 4
  %168 = load i32, i32* %8, align 4
  %169 = sub nsw i32 %168, 1
  %170 = icmp sle i32 %167, %169
  br i1 %170, label %171, label %229

171:                                              ; preds = %166
  %172 = load i32, i32* %17, align 4
  %173 = load i32, i32* %8, align 4
  %174 = sub nsw i32 %173, 1
  %175 = icmp ne i32 %172, %174
  br i1 %175, label %176, label %185

176:                                              ; preds = %171
  %177 = load i32, i32* %16, align 4
  %178 = sext i32 %177 to i64
  %179 = getelementptr inbounds [100 x [100 x i32]], [100 x [100 x i32]]* %4, i64 0, i64 %178
  %180 = load i32, i32* %17, align 4
  %181 = sext i32 %180 to i64
  %182 = getelementptr inbounds [100 x i32], [100 x i32]* %179, i64 0, i64 %181
  %183 = load i32, i32* %182, align 4
  %184 = call i32 (i8*, ...) @printf(i8* getelementptr inbounds ([4 x i8], [4 x i8]* @.str.2, i64 0, i64 0), i32 %183)
  br label %225

185:                                              ; preds = %171
  %186 = load i32, i32* %17, align 4
  %187 = load i32, i32* %8, align 4
  %188 = sub nsw i32 %187, 1
  %189 = icmp eq i32 %186, %188
  br i1 %189, label %190, label %204

190:                                              ; preds = %185
  %191 = load i32, i32* %16, align 4
  %192 = load i32, i32* %5, align 4
  %193 = sub nsw i32 %192, 1
  %194 = icmp ne i32 %191, %193
  br i1 %194, label %195, label %204

195:                                              ; preds = %190
  %196 = load i32, i32* %16, align 4
  %197 = sext i32 %196 to i64
  %198 = getelementptr inbounds [100 x [100 x i32]], [100 x [100 x i32]]* %4, i64 0, i64 %197
  %199 = load i32, i32* %17, align 4
  %200 = sext i32 %199 to i64
  %201 = getelementptr inbounds [100 x i32], [100 x i32]* %198, i64 0, i64 %200
  %202 = load i32, i32* %201, align 4
  %203 = call i32 (i8*, ...) @printf(i8* getelementptr inbounds ([4 x i8], [4 x i8]* @.str.3, i64 0, i64 0), i32 %202)
  br label %224

204:                                              ; preds = %190, %185
  %205 = load i32, i32* %17, align 4
  %206 = load i32, i32* %8, align 4
  %207 = sub nsw i32 %206, 1
  %208 = icmp eq i32 %205, %207
  br i1 %208, label %209, label %223

209:                                              ; preds = %204
  %210 = load i32, i32* %16, align 4
  %211 = load i32, i32* %5, align 4
  %212 = sub nsw i32 %211, 1
  %213 = icmp eq i32 %210, %212
  br i1 %213, label %214, label %223

214:                                              ; preds = %209
  %215 = load i32, i32* %16, align 4
  %216 = sext i32 %215 to i64
  %217 = getelementptr inbounds [100 x [100 x i32]], [100 x [100 x i32]]* %4, i64 0, i64 %216
  %218 = load i32, i32* %17, align 4
  %219 = sext i32 %218 to i64
  %220 = getelementptr inbounds [100 x i32], [100 x i32]* %217, i64 0, i64 %219
  %221 = load i32, i32* %220, align 4
  %222 = call i32 (i8*, ...) @printf(i8* getelementptr inbounds ([3 x i8], [3 x i8]* @.str.1, i64 0, i64 0), i32 %221)
  br label %223

223:                                              ; preds = %214, %209, %204
  br label %224

224:                                              ; preds = %223, %195
  br label %225

225:                                              ; preds = %224, %176
  br label %226

226:                                              ; preds = %225
  %227 = load i32, i32* %17, align 4
  %228 = add nsw i32 %227, 1
  store i32 %228, i32* %17, align 4
  br label %166

229:                                              ; preds = %166
  br label %230

230:                                              ; preds = %229
  %231 = load i32, i32* %16, align 4
  %232 = add nsw i32 %231, 1
  store i32 %232, i32* %16, align 4
  br label %160

233:                                              ; preds = %160
  %234 = load i32, i32* %1, align 4
  ret i32 %234
}